; Function Attrs: nounwind uwtable
define internal fastcc noalias nonnull ptr @_init_l_Lake_instInhabitedLeanLibConfig___closed__1() unnamed_addr #1 {
  %1 = load ptr, ptr @l_Lake_instInhabitedLeanLibConfig___lambda__1___closed__1, align 8, !tbaa !4
  tail call void @lean_inc_heartbeat() #8
  %2 = tail call noalias ptr @mi_malloc_small(i64 noundef 120) #8
  %3 = icmp eq ptr %2, null
  br i1 %3, label %4, label %lean_alloc_ctor.exit

4:                                                ; preds = %0
  tail call void @lean_internal_panic_out_of_memory() #9
  unreachable

lean_alloc_ctor.exit:                             ; preds = %0
  %5 = getelementptr inbounds nuw i8, ptr %2, i64 4
  %6 = getelementptr inbounds nuw i8, ptr %2, i64 112
  store i64 512, ptr %6, align 8, !tbaa !8
  store i32 1, ptr %2, align 4, !tbaa !10
  store i32 852088, ptr %5, align 4
  %7 = getelementptr inbounds nuw i8, ptr %2, i64 8
  store ptr %1, ptr %7, align 8, !tbaa !4
  %8 = getelementptr inbounds nuw i8, ptr %2, i64 16
  store ptr %1, ptr %8, align 8, !tbaa !4
  %9 = getelementptr inbounds nuw i8, ptr %2, i64 24
  store ptr %1, ptr %9, align 8, !tbaa !4
  %10 = getelementptr inbounds nuw i8, ptr %2, i64 32
  store ptr %1, ptr %10, align 8, !tbaa !4
  %11 = getelementptr inbounds nuw i8, ptr %2, i64 40
  store ptr %1, ptr %11, align 8, !tbaa !4
  %12 = getelementptr inbounds nuw i8, ptr %2, i64 48
  store ptr %1, ptr %12, align 8, !tbaa !4
  %13 = getelementptr inbounds nuw i8, ptr %2, i64 56
  store ptr %1, ptr %13, align 8, !tbaa !4
  %14 = getelementptr inbounds nuw i8, ptr %2, i64 64
  store ptr %1, ptr %14, align 8, !tbaa !4
  %15 = getelementptr inbounds nuw i8, ptr %2, i64 72
  store ptr %1, ptr %15, align 8, !tbaa !4
  %16 = getelementptr inbounds nuw i8, ptr %2, i64 80
  store ptr %1, ptr %16, align 8, !tbaa !4
  %17 = getelementptr inbounds nuw i8, ptr %2, i64 88
  store ptr inttoptr (i64 1 to ptr), ptr %17, align 8, !tbaa !4
  %18 = getelementptr inbounds nuw i8, ptr %2, i64 96
  store ptr %1, ptr %18, align 8, !tbaa !4
  %19 = getelementptr inbounds nuw i8, ptr %2, i64 104
  store ptr %1, ptr %19, align 8, !tbaa !4
  ret ptr %2
}